(lp0
(I6000
S'Merlin'
p1
tp2
a(I5000
S'Gandalf'
p3
tp4
a(I4500
S'Elminster'
p5
tp6
a(I4000
S'Erasmus'
p7
tp8
a(I3500
S'Saruman'
p9
tp10
a(I3000
S'Raistlin'
p11
tp12
a(I2500
S'Radagast'
p13
tp14
a(I2000
S'Pug'
p15
tp16
a(I1500
S'Dumbledore'
p17
tp18
a(I1000
S'Rincewind'
p19
tp20
a.